(lp0
(lp1
F0.0
aF0.0
aF0.0
aF0.0
aa(lp2
F0.0
aF0.0
aF0.0
aF0.0
aa(lp3
F0.0
aF0.0
aF0.0
aF0.0
aa(lp4
F0.0
aF0.0
aF0.0
aF0.0
aa(lp5
F0.0
aF0.0
aF0.0
aF0.0
aa(lp6
F0.0
aF0.0
aF0.0
aF0.0
aa(lp7
F0.0
aF0.0
aF0.0
aF0.0
aa(lp8
F-5.655849178497798
aF-5.665981179010988
aF-5.611100624014437
aF-5.68044288872497
aa(lp9
F-5.642964778731025
aF-5.609326545495554
aF-5.596951153908115
aF-5.646864588654624
aa(lp10
F-5.593312824040565
aF-5.479291228280422
aF-5.485284386249062
aF-5.499875400913771
aa(lp11
F-5.403798481096522
aF-5.341577792965981
aF-5.296425848709669
aF-5.344682484852571
aa(lp12
F0.0
aF0.0
aF0.0
aF0.0
aa(lp13
F0.0
aF0.0
aF0.0
aF0.0
aa(lp14
F-5.708144806557965
aF-5.654266753478065
aF-5.807931492063463
aF-5.714959773570627
aa(lp15
F-5.5767222888439845
aF-5.478563415526723
aF-5.56229924537067
aF-5.481167456311448
aa(lp16
F-5.312986048208096
aF-5.214825468233007
aF-5.335916849739689
aF-5.258882291970861
aa(lp17
F-4.928890915172195
aF-4.717851005689298
aF-4.9901333423500125
aF-4.946149817369523
aa(lp18
F0.0
aF0.0
aF0.0
aF0.0
aa(lp19
F0.0
aF0.0
aF0.0
aF0.0
aa(lp20
F-5.520751285415559
aF-5.464269058222905
aF-5.518433714026612
aF-5.411225433527989
aa(lp21
F-5.271155108800597
aF-5.315858699665408
aF-5.343411539727927
aF-5.282080091573178
aa(lp22
F-4.9959835179161445
aF-4.69771763633745
aF-4.998643719038861
aF-4.813891451311062
aa(lp23
F-4.502513383054032
aF-2.985211286531468
aF-4.635584358486151
aF-4.572369400347527
aa(lp24
F0.0
aF0.0
aF0.0
aF0.0
aa(lp25
F0.0
aF0.0
aF0.0
aF0.0
aa(lp26
F-5.356329627361032
aF-5.359425776947306
aF-5.396787746020308
aF-5.418725608054151
aa(lp27
F-5.161519170673
aF-27.1
aF-5.016590612012415
aF-4.5880147095538035
aa(lp28
F-4.560212079410449
aF-10.26809585375947
aF-4.596550714823905
aF-2.132914757349035
aa(lp29
F-4.074665855889116
aF-0.35924574553532695
aF-3.96739434270254
aF-3.7691445162550035
aa(lp30
F0.0
aF0.0
aF0.0
aF0.0
aa(lp31
F0.0
aF0.0
aF0.0
aF0.0
aa(lp32
F-5.620723544787197
aF-5.585300007153462
aF-5.650447205093347
aF-19.0
aa(lp33
F0.0
aF0.0
aF0.0
aF0.0
aa(lp34
F-2.423923491922002
aF-2.285348073390826
aF-56.953279
aF-2.358992834286353
aa(lp35
F-3.3425367567665285
aF1.7521233294713074
aF-6.766699496931464
aF-3.356134203641216
aa(lp36
F0.0
aF0.0
aF0.0
aF0.0
aa(lp37
F0.0
aF0.0
aF0.0
aF0.0
aa(lp38
F-4.249083653638188
aF-27.1
aF-4.03612870797939
aF-5.538543534361243
aa(lp39
F-27.1
aF-2.9031215720594203
aF-3.0378499916772768
aF-2.879365148838576
aa(lp40
F-2.5331856481732715
aF-2.5542952148431737
aF-2.5527277193426934
aF-1.6202419979803149
aa(lp41
F-2.5418503560972665
aF3.860890725513735
aF-2.6303468370547973
aF-2.3842799646193646
aa(lp42
F0.0
aF0.0
aF0.0
aF0.0
aa(lp43
F0.0
aF0.0
aF0.0
aF0.0
aa(lp44
F0.0
aF0.0
aF0.0
aF0.0
aa(lp45
F-2.5390972780608334
aF-2.480077284194588
aF-19.0
aF-2.25350563104373
aa(lp46
F-2.2984200628074896
aF-2.2566030730630438
aF-2.4820720708049784
aF2.0577370854624633
aa(lp47
F-1.7852871857423331
aF6.370200525161759
aF-2.344186264440652
aF0.34579980464323945
aa(lp48
F0.0
aF0.0
aF0.0
aF0.0
aa(lp49
F0.0
aF0.0
aF0.0
aF0.0
aa(lp50
F0.0
aF0.0
aF0.0
aF0.0
aa(lp51
F-2.1480361443322815
aF-1.8951626557538046
aF-40.951
aF-1.4416583457459191
aa(lp52
F-1.8253512583977758
aF-10.0
aF-2.068683247239135
aF3.3204864790240816
aa(lp53
F-1.1117980028300398
aF8.590036495216536
aF-1.4940212497396224
aF-1.1766997825115246
aa(lp54
F0.0
aF0.0
aF0.0
aF0.0
aa(lp55
F0.0
aF0.0
aF0.0
aF0.0
aa(lp56
F-19.0
aF-2.061535240959799
aF-2.6905671019797963
aF-3.0141890641605147
aa(lp57
F-5.71077902578674
aF-2.5565464320154465
aF-2.4683444701460187
aF-27.1
aa(lp58
F0.0
aF0.0
aF0.0
aF0.0
aa(lp59
F1.712453105571118
aF9.999999999781975
aF-61.2579511
aF4.21702385562248
aa(lp60
F0.0
aF0.0
aF0.0
aF0.0
aa(lp61
F0.0
aF0.0
aF0.0
aF0.0
aa(lp62
F-1.687346355541553
aF-0.6053342619263589
aF-1.5937068189181691
aF-1.578638541230256
aa(lp63
F-1.9572807004642685
aF-2.600718259115464
aF-1.8058993425040217
aF-19.0
aa(lp64
F0.0
aF0.0
aF0.0
aF0.0
aa(lp65
F0.0
aF0.0
aF0.0
aF0.0
aa(lp66
F0.0
aF0.0
aF0.0
aF0.0
aa(lp67
F0.0
aF0.0
aF0.0
aF0.0
aa(lp68
F-1.3386209426708409
aF2.104800117424748
aF-1.1175873830818297
aF-0.966246989030611
aa(lp69
F-0.8850262721469692
aF2.16413274365055
aF-0.9684371167991477
aF-27.1
aa(lp70
F0.0
aF0.0
aF0.0
aF0.0
aa(lp71
F9.99999999854742
aF2.353123086785602
aF-27.1
aF1.0601825225479224
aa(lp72
F0.0
aF0.0
aF0.0
aF0.0
aa(lp73
F0.0
aF0.0
aF0.0
aF0.0
aa(lp74
F-0.9732102608388302
aF-0.9580900012791
aF-0.8541893090720396
aF3.85201250842678
aa(lp75
F-0.6794458930669327
aF0.15839779926849296
aF-0.17382637080704952
aF5.87112917439268
aa(lp76
F-27.1
aF0.25523333152856964
aF0.3436783804374811
aF7.338608786187814
aa(lp77
F8.742835342352347
aF0.22597181763166985
aF1.3387339953879374
aF2.510954263140106
aa(lp78
F0.0
aF0.0
aF0.0
aF0.0
aa(lp79
F0.0
aF0.0
aF0.0
aF0.0
aa(lp80
F-1.1608617162624364
aF-1.382224143269577
aF-1.3554708817968772
aF0.9042569001191674
aa(lp81
F4.405854901738071
aF-1.1297016001933136
aF-1.0707534493210606
aF-0.2656047120298226
aa(lp82
F-0.6147859025
aF-0.622033378
aF-0.641278348
aF5.138091662496722
aa(lp83
F7.553464196412689
aF0.05996805556323104
aF0.3351760674456031
aF0.37834295523746614
aa(lp84
F0.0
aF0.0
aF0.0
aF0.0
aa(lp85
F0.0
aF0.0
aF0.0
aF0.0
aa(lp86
F-1.3933198186284472
aF-1.681749780448682
aF-1.6585873210801867
aF-1.5788045216174709
aa(lp87
F1.0193360518643089
aF-1.3592333889619923
aF-1.2581576784831519
aF-1.1427666215246692
aa(lp88
F1.8306641899156804
aF-0.9796230506902035
aF-0.9567410873322602
aF-0.9614627726700912
aa(lp89
F4.720631401169957
aF-0.7720240583963772
aF-0.7105849394143382
aF-0.770427403
aa(lp90
F0.0
aF0.0
aF0.0
aF0.0
aa(lp91
F0.0
aF0.0
aF0.0
aF0.0
aa(lp92
F-1.9584843157589946
aF-1.9517803523202497
aF-2.128030447218877
aF-1.9851444232584856
aa(lp93
F-1.3801982126662247
aF-1.6503108188545492
aF-1.6614054237714184
aF-1.6970808315088712
aa(lp94
F-1.3102587158343808
aF-1.4068637031754057
aF-1.3732979389678668
aF-0.7704548722739041
aa(lp95
F2.4213523903182117
aF-1.2560423640260119
aF-1.2446783603316112
aF-1.1612021389668834
aa(lp96
F0.0
aF0.0
aF0.0
aF0.0
aa(lp97
F0.0
aF0.0
aF0.0
aF0.0
aa(lp98
F-2.1808020054461266
aF-2.165117326442176
aF-2.210156687795921
aF-2.1545475047642366
aa(lp99
F-2.010188744418468
aF-2.027625367243265
aF-2.0416517941588617
aF-2.00836789433988
aa(lp100
F0.0
aF0.0
aF0.0
aF0.0
aa(lp101
F-0.8202119531305366
aF-1.5374093600244128
aF-1.6298138646864961
aF-1.5785538727382449
aa(lp102
F0.0
aF0.0
aF0.0
aF0.0
aa(lp103
F0.0
aF0.0
aF0.0
aF0.0
aa(lp104
F0.0
aF0.0
aF0.0
aF0.0
aa(lp105
F0.0
aF0.0
aF0.0
aF0.0
aa(lp106
F0.0
aF0.0
aF0.0
aF0.0
aa(lp107
F0.0
aF0.0
aF0.0
aF0.0
aa(lp108
F0.0
aF0.0
aF0.0
aF0.0
aa.